; Function Attrs: nounwind uwtable
define hidden i32 @internal_exr_undo_zip(ptr noundef %0, ptr noundef %1, i64 noundef %2, ptr noundef writeonly %3, i64 noundef %4) local_unnamed_addr #3 {
  %6 = alloca i64, align 8
  %7 = icmp eq i64 %2, %4
  br i1 %7, label %8, label %11

8:                                                ; preds = %5
  %9 = getelementptr inbounds nuw i8, ptr %0, i64 104
  store i64 %2, ptr %9, align 8, !tbaa !12
  %.not33 = icmp eq ptr %1, %3
  br i1 %.not33, label %55, label %10

10:                                               ; preds = %8
  tail call void @llvm.memcpy.p0.p0.i64(ptr align 1 %3, ptr align 1 %1, i64 %2, i1 false)
  br label %55

11:                                               ; preds = %5
  %spec.select = tail call i64 @llvm.umax.i64(i64 %2, i64 %4)
  %12 = getelementptr inbounds nuw i8, ptr %0, i64 184
  %13 = getelementptr inbounds nuw i8, ptr %0, i64 192
  %14 = tail call i32 @internal_decode_alloc_buffer(ptr noundef %0, i32 noundef 3, ptr noundef nonnull %12, ptr noundef nonnull %13, i64 noundef %spec.select) #8
  %.not = icmp eq i32 %14, 0
  br i1 %.not, label %15, label %55

15:                                               ; preds = %11
  %16 = load ptr, ptr %12, align 8, !tbaa !21
  %17 = load i64, ptr %13, align 8, !tbaa !22
  call void @llvm.lifetime.start.p0(i64 8, ptr nonnull %6) #8
  %18 = icmp ult i64 %17, %4
  br i1 %18, label %undo_zip_impl.exit, label %19

19:                                               ; preds = %15
  %20 = getelementptr inbounds nuw i8, ptr %0, i64 24
  %21 = load ptr, ptr %20, align 8, !tbaa !23
  %22 = call i32 @exr_uncompress_buffer(ptr noundef %21, ptr noundef %1, i64 noundef %2, ptr noundef %16, i64 noundef %17, ptr noundef nonnull %6) #8
  %23 = icmp eq i32 %22, 0
  br i1 %23, label %24, label %undo_zip_impl.exit

24:                                               ; preds = %19
  %25 = load i64, ptr %6, align 8, !tbaa !24
  %26 = getelementptr inbounds nuw i8, ptr %0, i64 104
  store i64 %25, ptr %26, align 8, !tbaa !12
  %27 = icmp ugt i64 %2, %25
  %28 = icmp ugt i64 %25, %4
  %or.cond.i = or i1 %27, %28
  br i1 %or.cond.i, label %undo_zip_impl.exit, label %29

29:                                               ; preds = %24
  %30 = getelementptr inbounds nuw i8, ptr %16, i64 %25
  %31 = icmp samesign ugt i64 %25, 1
  br i1 %31, label %.lr.ph.preheader.i.i.i, label %._crit_edge.i.i.i

.lr.ph.preheader.i.i.i:                           ; preds = %29
  %.09.i.i.i = getelementptr inbounds nuw i8, ptr %16, i64 1
  %.pre.i.i.i = load i8, ptr %16, align 1, !tbaa !3
  br label %.lr.ph.i.i.i

.lr.ph.i.i.i:                                     ; preds = %.lr.ph.i.i.i, %.lr.ph.preheader.i.i.i
  %32 = phi i8 [ %35, %.lr.ph.i.i.i ], [ %.pre.i.i.i, %.lr.ph.preheader.i.i.i ]
  %.011.i.i.i = phi ptr [ %.0.i.i.i, %.lr.ph.i.i.i ], [ %.09.i.i.i, %.lr.ph.preheader.i.i.i ]
  %33 = load i8, ptr %.011.i.i.i, align 1, !tbaa !3
  %34 = add i8 %33, %32
  %35 = xor i8 %34, -128
  store i8 %35, ptr %.011.i.i.i, align 1, !tbaa !3
  %.0.i.i.i = getelementptr inbounds nuw i8, ptr %.011.i.i.i, i64 1
  %36 = icmp ult ptr %.0.i.i.i, %30
  br i1 %36, label %.lr.ph.i.i.i, label %reconstruct.exit.i.i, !llvm.loop !6

reconstruct.exit.i.i:                             ; preds = %.lr.ph.i.i.i
  %37 = lshr i64 %25, 5
  %38 = add i64 %25, 1
  %39 = lshr i64 %38, 1
  %40 = getelementptr inbounds nuw i8, ptr %16, i64 %39
  %.not51.i.i.i = icmp ult i64 %25, 32
  br i1 %.not51.i.i.i, label %._crit_edge.i.i.i, label %.lr.ph.i4.i.i

._crit_edge.i.i.i:                                ; preds = %.lr.ph.i4.i.i, %reconstruct.exit.i.i, %29
  %.030.lcssa.i.i.i = phi ptr [ %3, %reconstruct.exit.i.i ], [ %3, %29 ], [ %49, %.lr.ph.i4.i.i ]
  %.029.lcssa.i.i.i = phi ptr [ %40, %reconstruct.exit.i.i ], [ %30, %29 ], [ %44, %.lr.ph.i4.i.i ]
  %.028.lcssa.i.i.i = phi ptr [ %16, %reconstruct.exit.i.i ], [ %16, %29 ], [ %42, %.lr.ph.i4.i.i ]
  %41 = and i64 %25, -32
  %.not52.i.i.i = icmp eq i64 %41, %25
  br i1 %.not52.i.i.i, label %undo_zip_impl.exit, label %.lr.ph49.i.i.i

.lr.ph.i4.i.i:                                    ; preds = %reconstruct.exit.i.i, %.lr.ph.i4.i.i
  %.02841.i.i.i = phi ptr [ %42, %.lr.ph.i4.i.i ], [ %16, %reconstruct.exit.i.i ]
  %.02940.i.i.i = phi ptr [ %44, %.lr.ph.i4.i.i ], [ %40, %reconstruct.exit.i.i ]
  %.03039.i.i.i = phi ptr [ %49, %.lr.ph.i4.i.i ], [ %3, %reconstruct.exit.i.i ]
  %.03238.i.i.i = phi i64 [ %50, %.lr.ph.i4.i.i ], [ 0, %reconstruct.exit.i.i ]
  %42 = getelementptr inbounds nuw i8, ptr %.02841.i.i.i, i64 16
  %43 = load <16 x i8>, ptr %.02841.i.i.i, align 1, !tbaa !3
  %44 = getelementptr inbounds nuw i8, ptr %.02940.i.i.i, i64 16
  %45 = load <16 x i8>, ptr %.02940.i.i.i, align 1, !tbaa !3
  %46 = shufflevector <16 x i8> %43, <16 x i8> %45, <16 x i32> <i32 0, i32 16, i32 1, i32 17, i32 2, i32 18, i32 3, i32 19, i32 4, i32 20, i32 5, i32 21, i32 6, i32 22, i32 7, i32 23>
  %47 = shufflevector <16 x i8> %43, <16 x i8> %45, <16 x i32> <i32 8, i32 24, i32 9, i32 25, i32 10, i32 26, i32 11, i32 27, i32 12, i32 28, i32 13, i32 29, i32 14, i32 30, i32 15, i32 31>
  %48 = getelementptr inbounds nuw i8, ptr %.03039.i.i.i, i64 16
  store <16 x i8> %46, ptr %.03039.i.i.i, align 1, !tbaa !3
  %49 = getelementptr inbounds nuw i8, ptr %.03039.i.i.i, i64 32
  store <16 x i8> %47, ptr %48, align 1, !tbaa !3
  %50 = add nuw nsw i64 %.03238.i.i.i, 1
  %exitcond.not.i.i.i = icmp eq i64 %50, %37
  br i1 %exitcond.not.i.i.i, label %._crit_edge.i.i.i, label %.lr.ph.i4.i.i, !llvm.loop !8

.lr.ph49.i.i.i:                                   ; preds = %._crit_edge.i.i.i, %.lr.ph49.i.i.i
  %.047.i.i.i = phi i64 [ %53, %.lr.ph49.i.i.i ], [ %41, %._crit_edge.i.i.i ]
  %.03146.i.i.i = phi ptr [ %.1.i.i.i, %.lr.ph49.i.i.i ], [ %.028.lcssa.i.i.i, %._crit_edge.i.i.i ]
  %.03345.i.i.i = phi ptr [ %52, %.lr.ph49.i.i.i ], [ %.030.lcssa.i.i.i, %._crit_edge.i.i.i ]
  %.03444.i.i.i = phi ptr [ %.135.i.i.i, %.lr.ph49.i.i.i ], [ %.029.lcssa.i.i.i, %._crit_edge.i.i.i ]
  %51 = and i64 %.047.i.i.i, 1
  %.not.i.i.i = icmp eq i64 %51, 0
  %.135.i.i.i = getelementptr inbounds nuw i8, ptr %.03444.i.i.i, i64 %51
  %.1.idx.i.i.i = xor i64 %51, 1
  %.1.i.i.i = getelementptr inbounds nuw i8, ptr %.03146.i.i.i, i64 %.1.idx.i.i.i
  %.in.in.i.i.i = select i1 %.not.i.i.i, ptr %.03146.i.i.i, ptr %.03444.i.i.i
  %.in37.i.i.i = load i8, ptr %.in.in.i.i.i, align 1, !tbaa !3
  %52 = getelementptr inbounds nuw i8, ptr %.03345.i.i.i, i64 1
  store i8 %.in37.i.i.i, ptr %.03345.i.i.i, align 1, !tbaa !3
  %53 = add nuw i64 %.047.i.i.i, 1
  %54 = icmp ult i64 %53, %25
  br i1 %54, label %.lr.ph49.i.i.i, label %undo_zip_impl.exit, !llvm.loop !9

undo_zip_impl.exit:                               ; preds = %.lr.ph49.i.i.i, %15, %19, %24, %._crit_edge.i.i.i
  %.014.i = phi i32 [ 3, %15 ], [ %22, %19 ], [ 23, %24 ], [ 0, %._crit_edge.i.i.i ], [ 0, %.lr.ph49.i.i.i ]
  call void @llvm.lifetime.end.p0(i64 8, ptr nonnull %6) #8
  br label %55

55:                                               ; preds = %11, %8, %10, %undo_zip_impl.exit
  %.026 = phi i32 [ %.014.i, %undo_zip_impl.exit ], [ 0, %10 ], [ 0, %8 ], [ %14, %11 ]
  ret i32 %.026
}